; Function Attrs: mustprogress uwtable
define void @_ZN6icu_7512FixedDecimalC2Ev(ptr noundef nonnull align 8 dereferenceable(64) %this) unnamed_addr #1 align 2 personality ptr @__gxx_personality_v0 {
entry:
  %0 = getelementptr inbounds i8, ptr %this, i64 8
  store ptr getelementptr inbounds ({ [8 x ptr], [5 x ptr] }, ptr @_ZTVN6icu_7512FixedDecimalE, i64 0, i32 0, i64 2), ptr %this, align 8
  store ptr getelementptr inbounds ({ [8 x ptr], [5 x ptr] }, ptr @_ZTVN6icu_7512FixedDecimalE, i64 0, i32 1, i64 2), ptr %0, align 8
  %isNegative.i.i.i = getelementptr inbounds i8, ptr %this, i64 61
  store i8 0, ptr %isNegative.i.i.i, align 1
  %source.i.i.i = getelementptr inbounds i8, ptr %this, i64 16
  store double 0.000000e+00, ptr %source.i.i.i, align 8
  %call.i.i.i1 = invoke signext i8 @uprv_isNaN_75(double noundef 0.000000e+00)
          to label %call.i.i.i.noexc unwind label %lpad

call.i.i.i.noexc:                                 ; preds = %entry
  %_isNaN.i.i.i = getelementptr inbounds i8, ptr %this, i64 62
  store i8 %call.i.i.i1, ptr %_isNaN.i.i.i, align 2
  %1 = load double, ptr %source.i.i.i, align 8
  %call4.i.i.i2 = invoke signext i8 @uprv_isInfinite_75(double noundef %1)
          to label %call4.i.i.i.noexc unwind label %lpad

call4.i.i.i.noexc:                                ; preds = %call.i.i.i.noexc
  %_isInfinite.i.i.i = getelementptr inbounds i8, ptr %this, i64 63
  store i8 %call4.i.i.i2, ptr %_isInfinite.i.i.i, align 1
  %exponent.i.i.i = getelementptr inbounds i8, ptr %this, i64 56
  store i32 0, ptr %exponent.i.i.i, align 8
  %2 = load i8, ptr %_isNaN.i.i.i, align 2
  %tobool.not.i.i.i = icmp eq i8 %2, 0
  %tobool10.not.i.i.i = icmp eq i8 %call4.i.i.i2, 0
  %or.cond.i.i.i = select i1 %tobool.not.i.i.i, i1 %tobool10.not.i.i.i, i1 false
  br i1 %or.cond.i.i.i, label %if.end21.i.i.i, label %invoke.cont

if.end21.i.i.i:                                   ; preds = %call4.i.i.i.noexc
  %3 = load double, ptr %source.i.i.i, align 8
  %conv13.i.i.i = fptosi double %3 to i64
  %conv17.i.i.i = sitofp i64 %conv13.i.i.i to double
  %cmp18.i.i.i = fcmp oeq double %3, %conv17.i.i.i
  %conv19.i.i.i = zext i1 %cmp18.i.i.i to i8
  br label %invoke.cont

invoke.cont:                                      ; preds = %call4.i.i.i.noexc, %if.end21.i.i.i
  %.sink3 = phi i64 [ %conv13.i.i.i, %if.end21.i.i.i ], [ 0, %call4.i.i.i.noexc ]
  %.sink = phi i8 [ %conv19.i.i.i, %if.end21.i.i.i ], [ 0, %call4.i.i.i.noexc ]
  %4 = getelementptr inbounds i8, ptr %this, i64 48
  store i64 %.sink3, ptr %4, align 8
  %5 = getelementptr inbounds i8, ptr %this, i64 60
  store i8 %.sink, ptr %5, align 4
  %6 = getelementptr inbounds i8, ptr %this, i64 24
  store i32 0, ptr %6, align 8
  %7 = getelementptr inbounds i8, ptr %this, i64 32
  tail call void @llvm.memset.p0.i64(ptr noundef nonnull align 8 dereferenceable(16) %7, i8 0, i64 16, i1 false)
  ret void

lpad:                                             ; preds = %call.i.i.i.noexc, %entry
  %8 = landingpad { ptr, i32 }
          cleanup
  tail call void @_ZN6icu_757UObjectD2Ev(ptr noundef nonnull align 8 dereferenceable(8) %0) #25
  tail call void @_ZN6icu_7513IFixedDecimalD2Ev(ptr noundef nonnull align 8 dereferenceable(8) %this) #25
  resume { ptr, i32 } %8
}